target datalayout = "e-m:e-p270:32:32-p271:32:32-p272:64:64-i64:64-i128:128-f80:128-n8:16:32:64-S128"
target triple = "x86_64-pc-linux-gnu"

%struct.OSSL_TIME = type { i64 }
%struct.ct_policy_eval_ctx_st = type { ptr, ptr, ptr, i64, ptr, ptr }

@.str = private unnamed_addr constant [33 x i8] c"../openssl/crypto/ct/ct_policy.c\00", align 1

; Function Attrs: nounwind uwtable
define ptr @CT_POLICY_EVAL_CTX_new_ex(ptr noundef %0, ptr noundef %1) #0 {
  %3 = alloca ptr, align 8
  %4 = alloca ptr, align 8
  %5 = alloca ptr, align 8
  %6 = alloca ptr, align 8
  %7 = alloca %struct.OSSL_TIME, align 8
  %8 = alloca i32, align 4
  %9 = alloca %struct.OSSL_TIME, align 8
  %10 = alloca %struct.OSSL_TIME, align 8
  %11 = alloca %struct.OSSL_TIME, align 8
  store ptr %0, ptr %4, align 8, !tbaa !3
  store ptr %1, ptr %5, align 8, !tbaa !8
  call void @llvm.lifetime.start.p0(i64 8, ptr %6) #6
  %12 = call noalias ptr @CRYPTO_zalloc(i64 noundef 48, ptr noundef @.str, i32 noundef 31)
  store ptr %12, ptr %6, align 8, !tbaa !10
  call void @llvm.lifetime.start.p0(i64 8, ptr %7) #6
  %13 = load ptr, ptr %6, align 8, !tbaa !10
  %14 = icmp eq ptr %13, null
  br i1 %14, label %15, label %16

15:                                               ; preds = %2
  store ptr null, ptr %3, align 8
  store i32 1, ptr %8, align 4
  br label %52

16:                                               ; preds = %2
  %17 = load ptr, ptr %4, align 8, !tbaa !3
  %18 = load ptr, ptr %6, align 8, !tbaa !10
  %19 = getelementptr inbounds nuw %struct.ct_policy_eval_ctx_st, ptr %18, i32 0, i32 4
  store ptr %17, ptr %19, align 8, !tbaa !12
  %20 = load ptr, ptr %5, align 8, !tbaa !8
  %21 = icmp ne ptr %20, null
  br i1 %21, label %22, label %34

22:                                               ; preds = %16
  %23 = load ptr, ptr %5, align 8, !tbaa !8
  %24 = call noalias ptr @CRYPTO_strdup(ptr noundef %23, ptr noundef @.str, i32 noundef 39)
  %25 = load ptr, ptr %6, align 8, !tbaa !10
  %26 = getelementptr inbounds nuw %struct.ct_policy_eval_ctx_st, ptr %25, i32 0, i32 5
  store ptr %24, ptr %26, align 8, !tbaa !17
  %27 = load ptr, ptr %6, align 8, !tbaa !10
  %28 = getelementptr inbounds nuw %struct.ct_policy_eval_ctx_st, ptr %27, i32 0, i32 5
  %29 = load ptr, ptr %28, align 8, !tbaa !17
  %30 = icmp eq ptr %29, null
  br i1 %30, label %31, label %33

31:                                               ; preds = %22
  %32 = load ptr, ptr %6, align 8, !tbaa !10
  call void @CRYPTO_free(ptr noundef %32, ptr noundef @.str, i32 noundef 41)
  store ptr null, ptr %3, align 8
  store i32 1, ptr %8, align 4
  br label %52

33:                                               ; preds = %22
  br label %34

34:                                               ; preds = %33, %16
  call void @llvm.lifetime.start.p0(i64 8, ptr %9) #6
  %35 = call i64 @ossl_time_now()
  %36 = getelementptr inbounds nuw %struct.OSSL_TIME, ptr %10, i32 0, i32 0
  store i64 %35, ptr %36, align 8
  %37 = call i64 @ossl_ticks2time(i64 noundef 300000000000)
  %38 = getelementptr inbounds nuw %struct.OSSL_TIME, ptr %11, i32 0, i32 0
  store i64 %37, ptr %38, align 8
  %39 = getelementptr inbounds nuw %struct.OSSL_TIME, ptr %10, i32 0, i32 0
  %40 = load i64, ptr %39, align 8
  %41 = getelementptr inbounds nuw %struct.OSSL_TIME, ptr %11, i32 0, i32 0
  %42 = load i64, ptr %41, align 8
  %43 = call i64 @ossl_time_add(i64 %40, i64 %42)
  %44 = getelementptr inbounds nuw %struct.OSSL_TIME, ptr %9, i32 0, i32 0
  store i64 %43, ptr %44, align 8
  call void @llvm.memcpy.p0.p0.i64(ptr align 8 %7, ptr align 8 %9, i64 8, i1 false), !tbaa.struct !18
  call void @llvm.lifetime.end.p0(i64 8, ptr %9) #6
  %45 = getelementptr inbounds nuw %struct.OSSL_TIME, ptr %7, i32 0, i32 0
  %46 = load i64, ptr %45, align 8
  %47 = call i64 @ossl_time2ticks(i64 %46)
  %48 = udiv i64 %47, 1000000
  %49 = load ptr, ptr %6, align 8, !tbaa !10
  %50 = getelementptr inbounds nuw %struct.ct_policy_eval_ctx_st, ptr %49, i32 0, i32 3
  store i64 %48, ptr %50, align 8, !tbaa !20
  %51 = load ptr, ptr %6, align 8, !tbaa !10
  store ptr %51, ptr %3, align 8
  store i32 1, ptr %8, align 4
  br label %52

52:                                               ; preds = %34, %31, %15
  call void @llvm.lifetime.end.p0(i64 8, ptr %7) #6
  call void @llvm.lifetime.end.p0(i64 8, ptr %6) #6
  %53 = load ptr, ptr %3, align 8
  ret ptr %53
}

; Function Attrs: nocallback nofree nosync nounwind willreturn memory(argmem: readwrite)
declare void @llvm.lifetime.start.p0(i64 immarg, ptr captures(none)) #1

declare noalias ptr @CRYPTO_zalloc(i64 noundef, ptr noundef, i32 noundef) #2

declare noalias ptr @CRYPTO_strdup(ptr noundef, ptr noundef, i32 noundef) #2

declare void @CRYPTO_free(ptr noundef, ptr noundef, i32 noundef) #2

; Function Attrs: inlinehint nounwind uwtable
define internal i64 @ossl_time_add(i64 %0, i64 %1) #3 {
  %3 = alloca %struct.OSSL_TIME, align 8
  %4 = alloca %struct.OSSL_TIME, align 8
  %5 = alloca %struct.OSSL_TIME, align 8
  %6 = alloca %struct.OSSL_TIME, align 8
  %7 = alloca i32, align 4
  %8 = getelementptr inbounds nuw %struct.OSSL_TIME, ptr %4, i32 0, i32 0
  store i64 %0, ptr %8, align 8
  %9 = getelementptr inbounds nuw %struct.OSSL_TIME, ptr %5, i32 0, i32 0
  store i64 %1, ptr %9, align 8
  call void @llvm.lifetime.start.p0(i64 8, ptr %6) #6
  call void @llvm.lifetime.start.p0(i64 4, ptr %7) #6
  store i32 0, ptr %7, align 4, !tbaa !21
  %10 = getelementptr inbounds nuw %struct.OSSL_TIME, ptr %4, i32 0, i32 0
  %11 = load i64, ptr %10, align 8, !tbaa !23
  %12 = getelementptr inbounds nuw %struct.OSSL_TIME, ptr %5, i32 0, i32 0
  %13 = load i64, ptr %12, align 8, !tbaa !23
  %14 = call i64 @safe_add_time(i64 noundef %11, i64 noundef %13, ptr noundef %7)
  %15 = getelementptr inbounds nuw %struct.OSSL_TIME, ptr %6, i32 0, i32 0
  store i64 %14, ptr %15, align 8, !tbaa !23
  %16 = load i32, ptr %7, align 4, !tbaa !21
  %17 = icmp ne i32 %16, 0
  br i1 %17, label %18, label %21

18:                                               ; preds = %2
  %19 = call i64 @ossl_time_infinite()
  %20 = getelementptr inbounds nuw %struct.OSSL_TIME, ptr %3, i32 0, i32 0
  store i64 %19, ptr %20, align 8
  br label %22

21:                                               ; preds = %2
  call void @llvm.memcpy.p0.p0.i64(ptr align 8 %3, ptr align 8 %6, i64 8, i1 false), !tbaa.struct !18
  br label %22

22:                                               ; preds = %21, %18
  call void @llvm.lifetime.end.p0(i64 4, ptr %7) #6
  call void @llvm.lifetime.end.p0(i64 8, ptr %6) #6
  %23 = getelementptr inbounds nuw %struct.OSSL_TIME, ptr %3, i32 0, i32 0
  %24 = load i64, ptr %23, align 8
  ret i64 %24
}

declare i64 @ossl_time_now() #2

; Function Attrs: inlinehint nounwind uwtable
define internal i64 @ossl_ticks2time(i64 noundef %0) #3 {
  %2 = alloca %struct.OSSL_TIME, align 8
  %3 = alloca i64, align 8
  store i64 %0, ptr %3, align 8, !tbaa !19
  %4 = load i64, ptr %3, align 8, !tbaa !19
  %5 = getelementptr inbounds nuw %struct.OSSL_TIME, ptr %2, i32 0, i32 0
  store i64 %4, ptr %5, align 8, !tbaa !23
  %6 = getelementptr inbounds nuw %struct.OSSL_TIME, ptr %2, i32 0, i32 0
  %7 = load i64, ptr %6, align 8
  ret i64 %7
}

; Function Attrs: nocallback nofree nounwind willreturn memory(argmem: readwrite)
declare void @llvm.memcpy.p0.p0.i64(ptr noalias writeonly captures(none), ptr noalias readonly captures(none), i64, i1 immarg) #4

; Function Attrs: nocallback nofree nosync nounwind willreturn memory(argmem: readwrite)
declare void @llvm.lifetime.end.p0(i64 immarg, ptr captures(none)) #1

; Function Attrs: inlinehint nounwind uwtable
define internal i64 @ossl_time2ticks(i64 %0) #3 {
  %2 = alloca %struct.OSSL_TIME, align 8
  %3 = getelementptr inbounds nuw %struct.OSSL_TIME, ptr %2, i32 0, i32 0
  store i64 %0, ptr %3, align 8
  %4 = getelementptr inbounds nuw %struct.OSSL_TIME, ptr %2, i32 0, i32 0
  %5 = load i64, ptr %4, align 8, !tbaa !23
  ret i64 %5
}

; Function Attrs: nounwind uwtable
define ptr @CT_POLICY_EVAL_CTX_new() #0 {
  %1 = call ptr @CT_POLICY_EVAL_CTX_new_ex(ptr noundef null, ptr noundef null)
  ret ptr %1
}

; Function Attrs: nounwind uwtable
define void @CT_POLICY_EVAL_CTX_free(ptr noundef %0) #0 {
  %2 = alloca ptr, align 8
  store ptr %0, ptr %2, align 8, !tbaa !10
  %3 = load ptr, ptr %2, align 8, !tbaa !10
  %4 = icmp eq ptr %3, null
  br i1 %4, label %5, label %6

5:                                                ; preds = %1
  br label %17

6:                                                ; preds = %1
  %7 = load ptr, ptr %2, align 8, !tbaa !10
  %8 = getelementptr inbounds nuw %struct.ct_policy_eval_ctx_st, ptr %7, i32 0, i32 0
  %9 = load ptr, ptr %8, align 8, !tbaa !25
  call void @X509_free(ptr noundef %9)
  %10 = load ptr, ptr %2, align 8, !tbaa !10
  %11 = getelementptr inbounds nuw %struct.ct_policy_eval_ctx_st, ptr %10, i32 0, i32 1
  %12 = load ptr, ptr %11, align 8, !tbaa !26
  call void @X509_free(ptr noundef %12)
  %13 = load ptr, ptr %2, align 8, !tbaa !10
  %14 = getelementptr inbounds nuw %struct.ct_policy_eval_ctx_st, ptr %13, i32 0, i32 5
  %15 = load ptr, ptr %14, align 8, !tbaa !17
  call void @CRYPTO_free(ptr noundef %15, ptr noundef @.str, i32 noundef 64)
  %16 = load ptr, ptr %2, align 8, !tbaa !10
  call void @CRYPTO_free(ptr noundef %16, ptr noundef @.str, i32 noundef 65)
  br label %17

17:                                               ; preds = %6, %5
  ret void
}

declare void @X509_free(ptr noundef) #2

; Function Attrs: nounwind uwtable
define i32 @CT_POLICY_EVAL_CTX_set1_cert(ptr noundef %0, ptr noundef %1) #0 {
  %3 = alloca i32, align 4
  %4 = alloca ptr, align 8
  %5 = alloca ptr, align 8
  store ptr %0, ptr %4, align 8, !tbaa !10
  store ptr %1, ptr %5, align 8, !tbaa !27
  %6 = load ptr, ptr %5, align 8, !tbaa !27
  %7 = call i32 @X509_up_ref(ptr noundef %6)
  %8 = icmp ne i32 %7, 0
  br i1 %8, label %10, label %9

9:                                                ; preds = %2
  store i32 0, ptr %3, align 4
  br label %14

10:                                               ; preds = %2
  %11 = load ptr, ptr %5, align 8, !tbaa !27
  %12 = load ptr, ptr %4, align 8, !tbaa !10
  %13 = getelementptr inbounds nuw %struct.ct_policy_eval_ctx_st, ptr %12, i32 0, i32 0
  store ptr %11, ptr %13, align 8, !tbaa !25
  store i32 1, ptr %3, align 4
  br label %14

14:                                               ; preds = %10, %9
  %15 = load i32, ptr %3, align 4
  ret i32 %15
}

declare i32 @X509_up_ref(ptr noundef) #2

; Function Attrs: nounwind uwtable
define i32 @CT_POLICY_EVAL_CTX_set1_issuer(ptr noundef %0, ptr noundef %1) #0 {
  %3 = alloca i32, align 4
  %4 = alloca ptr, align 8
  %5 = alloca ptr, align 8
  store ptr %0, ptr %4, align 8, !tbaa !10
  store ptr %1, ptr %5, align 8, !tbaa !27
  %6 = load ptr, ptr %5, align 8, !tbaa !27
  %7 = call i32 @X509_up_ref(ptr noundef %6)
  %8 = icmp ne i32 %7, 0
  br i1 %8, label %10, label %9

9:                                                ; preds = %2
  store i32 0, ptr %3, align 4
  br label %14

10:                                               ; preds = %2
  %11 = load ptr, ptr %5, align 8, !tbaa !27
  %12 = load ptr, ptr %4, align 8, !tbaa !10
  %13 = getelementptr inbounds nuw %struct.ct_policy_eval_ctx_st, ptr %12, i32 0, i32 1
  store ptr %11, ptr %13, align 8, !tbaa !26
  store i32 1, ptr %3, align 4
  br label %14

14:                                               ; preds = %10, %9
  %15 = load i32, ptr %3, align 4
  ret i32 %15
}

; Function Attrs: nounwind uwtable
define void @CT_POLICY_EVAL_CTX_set_shared_CTLOG_STORE(ptr noundef %0, ptr noundef %1) #0 {
  %3 = alloca ptr, align 8
  %4 = alloca ptr, align 8
  store ptr %0, ptr %3, align 8, !tbaa !10
  store ptr %1, ptr %4, align 8, !tbaa !28
  %5 = load ptr, ptr %4, align 8, !tbaa !28
  %6 = load ptr, ptr %3, align 8, !tbaa !10
  %7 = getelementptr inbounds nuw %struct.ct_policy_eval_ctx_st, ptr %6, i32 0, i32 2
  store ptr %5, ptr %7, align 8, !tbaa !29
  ret void
}

; Function Attrs: nounwind uwtable
define void @CT_POLICY_EVAL_CTX_set_time(ptr noundef %0, i64 noundef %1) #0 {
  %3 = alloca ptr, align 8
  %4 = alloca i64, align 8
  store ptr %0, ptr %3, align 8, !tbaa !10
  store i64 %1, ptr %4, align 8, !tbaa !19
  %5 = load i64, ptr %4, align 8, !tbaa !19
  %6 = load ptr, ptr %3, align 8, !tbaa !10
  %7 = getelementptr inbounds nuw %struct.ct_policy_eval_ctx_st, ptr %6, i32 0, i32 3
  store i64 %5, ptr %7, align 8, !tbaa !20
  ret void
}

; Function Attrs: nounwind uwtable
define ptr @CT_POLICY_EVAL_CTX_get0_cert(ptr noundef %0) #0 {
  %2 = alloca ptr, align 8
  store ptr %0, ptr %2, align 8, !tbaa !10
  %3 = load ptr, ptr %2, align 8, !tbaa !10
  %4 = getelementptr inbounds nuw %struct.ct_policy_eval_ctx_st, ptr %3, i32 0, i32 0
  %5 = load ptr, ptr %4, align 8, !tbaa !25
  ret ptr %5
}

; Function Attrs: nounwind uwtable
define ptr @CT_POLICY_EVAL_CTX_get0_issuer(ptr noundef %0) #0 {
  %2 = alloca ptr, align 8
  store ptr %0, ptr %2, align 8, !tbaa !10
  %3 = load ptr, ptr %2, align 8, !tbaa !10
  %4 = getelementptr inbounds nuw %struct.ct_policy_eval_ctx_st, ptr %3, i32 0, i32 1
  %5 = load ptr, ptr %4, align 8, !tbaa !26
  ret ptr %5
}

; Function Attrs: nounwind uwtable
define ptr @CT_POLICY_EVAL_CTX_get0_log_store(ptr noundef %0) #0 {
  %2 = alloca ptr, align 8
  store ptr %0, ptr %2, align 8, !tbaa !10
  %3 = load ptr, ptr %2, align 8, !tbaa !10
  %4 = getelementptr inbounds nuw %struct.ct_policy_eval_ctx_st, ptr %3, i32 0, i32 2
  %5 = load ptr, ptr %4, align 8, !tbaa !29
  ret ptr %5
}

; Function Attrs: nounwind uwtable
define i64 @CT_POLICY_EVAL_CTX_get_time(ptr noundef %0) #0 {
  %2 = alloca ptr, align 8
  store ptr %0, ptr %2, align 8, !tbaa !10
  %3 = load ptr, ptr %2, align 8, !tbaa !10
  %4 = getelementptr inbounds nuw %struct.ct_policy_eval_ctx_st, ptr %3, i32 0, i32 3
  %5 = load i64, ptr %4, align 8, !tbaa !20
  ret i64 %5
}

; Function Attrs: inlinehint nounwind uwtable
define internal i64 @safe_add_time(i64 noundef %0, i64 noundef %1, ptr noundef %2) #3 {
  %4 = alloca i64, align 8
  %5 = alloca i64, align 8
  %6 = alloca i64, align 8
  %7 = alloca ptr, align 8
  %8 = alloca i64, align 8
  %9 = alloca i32, align 4
  store i64 %0, ptr %5, align 8, !tbaa !19
  store i64 %1, ptr %6, align 8, !tbaa !19
  store ptr %2, ptr %7, align 8, !tbaa !30
  call void @llvm.lifetime.start.p0(i64 8, ptr %8) #6
  %10 = load i64, ptr %5, align 8, !tbaa !19
  %11 = load i64, ptr %6, align 8, !tbaa !19
  %12 = call { i64, i1 } @llvm.uadd.with.overflow.i64(i64 %10, i64 %11)
  %13 = extractvalue { i64, i1 } %12, 1
  %14 = extractvalue { i64, i1 } %12, 0
  store i64 %14, ptr %8, align 8
  br i1 %13, label %17, label %15

15:                                               ; preds = %3
  %16 = load i64, ptr %8, align 8, !tbaa !19
  store i64 %16, ptr %4, align 8
  store i32 1, ptr %9, align 4
  br label %24

17:                                               ; preds = %3
  %18 = load ptr, ptr %7, align 8, !tbaa !30
  %19 = load i32, ptr %18, align 4, !tbaa !21
  %20 = or i32 %19, 1
  store i32 %20, ptr %18, align 4, !tbaa !21
  %21 = load i64, ptr %5, align 8, !tbaa !19
  %22 = load i64, ptr %6, align 8, !tbaa !19
  %23 = add i64 %21, %22
  store i64 %23, ptr %4, align 8
  store i32 1, ptr %9, align 4
  br label %24

24:                                               ; preds = %17, %15
  call void @llvm.lifetime.end.p0(i64 8, ptr %8) #6
  %25 = load i64, ptr %4, align 8
  ret i64 %25
}

; Function Attrs: inlinehint nounwind uwtable
define internal i64 @ossl_time_infinite() #3 {
  %1 = alloca %struct.OSSL_TIME, align 8
  %2 = call i64 @ossl_ticks2time(i64 noundef -1)
  %3 = getelementptr inbounds nuw %struct.OSSL_TIME, ptr %1, i32 0, i32 0
  store i64 %2, ptr %3, align 8
  %4 = getelementptr inbounds nuw %struct.OSSL_TIME, ptr %1, i32 0, i32 0
  %5 = load i64, ptr %4, align 8
  ret i64 %5
}

; Function Attrs: nocallback nofree nosync nounwind speculatable willreturn memory(none)
declare { i64, i1 } @llvm.uadd.with.overflow.i64(i64, i64) #5


!llvm.module.flags = !{!0, !1, !2}

!0 = !{i32 1, !"wchar_size", i32 4}
!1 = !{i32 8, !"PIC Level", i32 2}
!2 = !{i32 7, !"uwtable", i32 2}
!3 = !{!4, !4, i64 0}
!4 = !{!"p1 _ZTS15ossl_lib_ctx_st", !5, i64 0}
!5 = !{!"any pointer", !6, i64 0}
!6 = !{!"omnipotent char", !7, i64 0}
!7 = !{!"Simple C/C++ TBAA"}
!8 = !{!9, !9, i64 0}
!9 = !{!"p1 omnipotent char", !5, i64 0}
!10 = !{!11, !11, i64 0}
!11 = !{!"p1 _ZTS21ct_policy_eval_ctx_st", !5, i64 0}
!12 = !{!13, !4, i64 32}
!13 = !{!"ct_policy_eval_ctx_st", !14, i64 0, !14, i64 8, !15, i64 16, !16, i64 24, !4, i64 32, !9, i64 40}
!14 = !{!"p1 _ZTS7x509_st", !5, i64 0}
!15 = !{!"p1 _ZTS14ctlog_store_st", !5, i64 0}
!16 = !{!"long", !6, i64 0}
!17 = !{!13, !9, i64 40}
!18 = !{i64 0, i64 8, !19}
!19 = !{!16, !16, i64 0}
!20 = !{!13, !16, i64 24}
!21 = !{!22, !22, i64 0}
!22 = !{!"int", !6, i64 0}
!23 = !{!24, !16, i64 0}
!24 = !{!"", !16, i64 0}
!25 = !{!13, !14, i64 0}
!26 = !{!13, !14, i64 8}
!27 = !{!14, !14, i64 0}
!28 = !{!15, !15, i64 0}
!29 = !{!13, !15, i64 16}
!30 = !{!31, !31, i64 0}
!31 = !{!"p1 int", !5, i64 0}
